Certificate:
    Data:
        Version: 3 (0x2)
        Serial Number:
            07:f1:92:91:46:c3:11:a8:a1:52:b7:04:ef:0c:e9:19:21:97:72:bd
        Signature Algorithm: sha256WithRSAEncryption
        Issuer: C=US, ST=Some-State, O=QWERTY, CN=my-domain.com/emailAddress=admin@mail.my-domain.com
        Validity
            Not Before: Sep 29 00:50:28 2020 GMT
            Not After : Sep 29 00:50:28 2023 GMT
        Subject: C=US, ST=Some-State, O=QWERTY, CN=my-domain.com/emailAddress=admin@mail.my-domain.com
        Subject Public Key Info:
            Public Key Algorithm: rsaEncryption
                RSA Public-Key: (2048 bit)
                Modulus:
                    00:af:40:62:a0:50:08:65:ef:c6:7a:28:0c:49:aa:
                    4d:ff:81:74:ca:30:f7:22:ec:bb:f1:6c:28:ec:bf:
                    18:fe:c7:a5:43:b7:d6:5b:4b:bd:75:39:2a:9a:5c:
                    10:db:70:54:49:0b:9a:df:f0:94:a0:dc:ce:6e:a8:
                    d1:77:51:bf:03:18:15:40:1c:b0:bd:1b:aa:cb:ff:
                    95:64:24:dd:2e:a2:b2:bd:a4:8b:18:f1:df:0a:83:
                    19:f7:fc:fe:67:dd:60:fb:cf:f9:6d:b5:b6:48:da:
                    20:b9:de:7e:f5:ed:01:02:fe:8d:a4:10:8d:a3:29:
                    45:89:08:6c:dc:78:b7:47:67:e8:08:3f:b7:6a:0e:
                    40:cf:16:34:ba:1b:06:ea:02:69:8b:61:6f:76:e2:
                    50:d0:b0:a5:11:0e:06:86:6d:47:e4:dc:4c:57:df:
                    9b:73:d5:ac:c6:09:6f:c0:b8:a7:e5:8e:23:f7:e7:
                    65:0f:b0:c6:4c:f1:8a:63:dd:2b:4f:cf:1f:8d:08:
                    09:8e:9d:a9:d4:4c:19:70:11:30:c3:f9:a6:4e:0d:
                    76:e9:85:d9:2f:ea:1d:74:ca:bc:e9:93:8c:10:6d:
                    87:b0:28:47:8f:68:cd:e9:d1:e5:16:78:48:05:a9:
                    2f:e3:c3:95:93:f1:27:e9:4d:6f:c9:ef:1b:c4:d6:
                    73:e3
                Exponent: 65537 (0x10001)
        X509v3 extensions:
            X509v3 Subject Key Identifier: 
                CD:2D:2B:BC:70:47:4A:D3:3C:1E:BB:94:70:F1:C2:A1:8E:A5:BD:CF
            X509v3 Authority Key Identifier: 
                keyid:CD:2D:2B:BC:70:47:4A:D3:3C:1E:BB:94:70:F1:C2:A1:8E:A5:BD:CF

            X509v3 Basic Constraints: critical
                CA:TRUE
    Signature Algorithm: sha256WithRSAEncryption
         30:a7:37:f9:cf:4f:c7:3a:32:30:d4:83:e6:41:2a:b2:80:47:
         90:94:69:c4:ab:bc:ac:04:ee:f2:a2:1d:c9:09:fd:47:b2:de:
         f1:55:db:b7:77:90:da:ca:bc:06:14:1f:c4:5b:ec:66:2a:05:
         23:18:42:87:fa:db:6f:58:ca:48:90:db:89:25:03:32:51:45:
         0d:63:96:75:57:3f:61:4e:9c:73:86:08:59:ea:85:d4:da:dd:
         26:dd:ad:5e:ec:8a:70:5c:56:c9:43:cf:af:1e:70:76:19:97:
         2f:c0:f0:39:f0:00:d1:f3:14:53:3a:69:c4:43:c0:4e:60:d5:
         2d:67:a1:f9:d5:c0:8c:b1:3f:a4:80:7a:8e:25:37:62:ce:71:
         48:ff:83:9c:13:76:21:9c:f5:96:33:62:11:44:72:0f:f5:4c:
         1b:fc:f9:78:67:63:74:94:a4:d2:b2:ec:3d:9e:7d:0a:57:dd:
         f9:fe:a7:2c:54:d2:58:0b:70:67:3e:84:1b:0a:43:b7:88:47:
         5f:d1:63:2b:19:d4:ba:be:4e:92:d4:f1:d8:08:e2:2a:98:42:
         31:f0:1d:7e:b1:71:2a:bd:e3:67:12:15:d7:a1:d5:aa:d3:de:
         99:8b:2b:8c:1f:3c:49:90:6c:cf:b7:15:b8:a4:5f:e7:12:90:
         30:7a:00:06
-----BEGIN CERTIFICATE-----
MIIDyTCCArGgAwIBAgIUB/GSkUbDEaihUrcE7wzpGSGXcr0wDQYJKoZIhvcNAQEL
BQAwdDELMAkGA1UEBhMCVVMxEzARBgNVBAgMClNvbWUtU3RhdGUxDzANBgNVBAoM
BlFXRVJUWTEWMBQGA1UEAwwNbXktZG9tYWluLmNvbTEnMCUGCSqGSIb3DQEJARYY
YWRtaW5AbWFpbC5teS1kb21haW4uY29tMB4XDTIwMDkyOTAwNTAyOFoXDTIzMDky
OTAwNTAyOFowdDELMAkGA1UEBhMCVVMxEzARBgNVBAgMClNvbWUtU3RhdGUxDzAN
BgNVBAoMBlFXRVJUWTEWMBQGA1UEAwwNbXktZG9tYWluLmNvbTEnMCUGCSqGSIb3
DQEJARYYYWRtaW5AbWFpbC5teS1kb21haW4uY29tMIIBIjANBgkqhkiG9w0BAQEF
AAOCAQ8AMIIBCgKCAQEAr0BioFAIZe/GeigMSapN/4F0yjD3Iuy78Wwo7L8Y/sel
Q7fWW0u9dTkqmlwQ23BUSQua3/CUoNzObqjRd1G/AxgVQBywvRuqy/+VZCTdLqKy
vaSLGPHfCoMZ9/z+Z91g+8/5bbW2SNogud5+9e0BAv6NpBCNoylFiQhs3Hi3R2fo
CD+3ag5AzxY0uhsG6gJpi2FvduJQ0LClEQ4Ghm1H5NxMV9+bc9WsxglvwLin5Y4j
9+dlD7DGTPGKY90rT88fjQgJjp2p1EwZcBEww/mmTg126YXZL+oddMq86ZOMEG2H
sChHj2jN6dHlFnhIBakv48OVk/En6U1vye8bxNZz4wIDAQABo1MwUTAdBgNVHQ4E
FgQUzS0rvHBHStM8HruUcPHCoY6lvc8wHwYDVR0jBBgwFoAUzS0rvHBHStM8HruU
cPHCoY6lvc8wDwYDVR0TAQH/BAUwAwEB/zANBgkqhkiG9w0BAQsFAAOCAQEAMKc3
+c9PxzoyMNSD5kEqsoBHkJRpxKu8rATu8qIdyQn9R7Le8VXbt3eQ2sq8BhQfxFvs
ZioFIxhCh/rbb1jKSJDbiSUDMlFFDWOWdVc/YU6cc4YIWeqF1NrdJt2tXuyKcFxW
yUPPrx5wdhmXL8DwOfAA0fMUUzppxEPATmDVLWeh+dXAjLE/pIB6jiU3Ys5xSP+D
nBN2IZz1ljNiEURyD/VMG/z5eGdjdJSk0rLsPZ59Clfd+f6nLFTSWAtwZz6EGwpD
t4hHX9FjKxnUur5OktTx2AjiKphCMfAdfrFxKr3jZxIV16HVqtPemYsrjB88SZBs
z7cVuKRf5xKQMHoABg==
-----END CERTIFICATE-----
