Certificate:
    Data:
        Version: 3 (0x2)
        Serial Number:
            07:f1:92:91:46:c3:11:a8:a1:52:b7:04:ef:0c:e9:19:21:97:72:be
        Signature Algorithm: sha256WithRSAEncryption
        Issuer: C=US, ST=Some-State, O=QWERTY, CN=my-domain.com/emailAddress=admin@mail.my-domain.com
        Validity
            Not Before: Sep 29 00:51:14 2020 GMT
            Not After : Sep 29 00:51:14 2021 GMT
        Subject: C=US, ST=Some-State, O=QWERTY, CN=mail.my-domain.com
        Subject Public Key Info:
            Public Key Algorithm: rsaEncryption
                RSA Public-Key: (2048 bit)
                Modulus:
                    00:d8:4e:87:81:67:32:36:98:74:10:5e:98:ee:b5:
                    3d:55:88:2d:aa:fe:c0:47:75:9f:62:74:88:b4:f2:
                    dd:0c:2f:30:a3:1c:1b:87:e2:1b:cd:64:8b:66:3e:
                    b8:73:e0:e8:48:e5:38:93:96:42:49:b2:af:e6:f4:
                    25:1e:de:8d:41:32:82:65:1f:23:23:67:79:e1:8c:
                    98:45:53:93:d0:e6:c2:aa:a4:b1:7f:91:85:13:11:
                    93:93:b4:06:ed:9b:d1:c0:d3:03:f4:7a:c6:50:63:
                    ae:ed:42:5d:02:cb:7e:8a:e9:eb:59:97:ec:7d:3d:
                    20:ab:50:bc:34:5d:55:c0:0d:6d:85:7e:8c:51:f4:
                    8f:e6:85:c5:16:96:03:a6:97:ec:22:77:14:1c:02:
                    dd:85:30:16:e1:b3:0c:ff:43:a2:ea:f2:1a:55:15:
                    d5:cc:b2:ee:d3:f2:e2:3e:cc:2a:15:7f:5c:57:04:
                    ac:3d:ee:53:e3:49:0d:5d:50:2e:1d:ad:7d:14:46:
                    0c:7b:ff:5b:2b:e1:a8:f3:a7:04:2b:7c:23:02:32:
                    f8:c5:af:80:94:14:5f:c9:8e:37:c5:83:4b:0c:da:
                    fe:0d:a3:da:8f:6f:ef:77:3b:a4:33:a9:88:96:cf:
                    1b:f6:1b:c9:b4:28:01:c9:2b:fc:1a:01:7e:23:27:
                    72:95
                Exponent: 65537 (0x10001)
        X509v3 extensions:
            X509v3 Basic Constraints: 
                CA:FALSE
            Netscape Comment: 
                OpenSSL Generated Certificate
            X509v3 Subject Key Identifier: 
                DA:33:FD:41:D4:02:F6:2B:85:B8:C8:02:FB:FA:94:12:35:1B:D6:B1
            X509v3 Authority Key Identifier: 
                keyid:CD:2D:2B:BC:70:47:4A:D3:3C:1E:BB:94:70:F1:C2:A1:8E:A5:BD:CF

    Signature Algorithm: sha256WithRSAEncryption
         92:76:e9:97:d2:68:86:b5:ee:5e:e8:c5:99:11:d1:89:ea:29:
         cb:ab:6b:ea:e2:ce:98:4b:b8:10:65:bc:ec:82:b9:01:5d:01:
         b5:3d:8a:1d:13:12:75:29:36:c2:de:37:9f:00:d2:ee:ca:7a:
         dd:8f:57:47:ed:2c:a7:de:dd:24:da:c4:25:38:2b:68:16:23:
         b1:e3:36:ea:eb:7e:78:06:d9:3a:71:70:bb:5b:ac:3b:76:05:
         77:aa:ee:62:ce:c2:37:5e:0d:4b:4a:7b:37:b4:1d:10:1e:3b:
         9f:e3:96:cb:2e:d9:1c:30:a5:ec:2d:f2:85:87:38:9c:50:bc:
         ff:28:b1:09:d8:47:7e:c2:52:ac:78:a8:5e:2c:44:3c:37:a4:
         96:e8:c8:c4:64:d2:ab:a4:92:94:2b:4b:f7:f1:4c:8d:17:95:
         aa:00:97:fc:de:56:dd:f8:fd:07:ab:19:de:91:68:83:b4:6d:
         52:57:be:86:1f:68:f2:eb:ee:23:54:10:8e:aa:15:97:5a:05:
         e7:9f:48:cd:85:4c:bb:e1:b8:90:6f:e3:f2:83:8e:02:3d:9a:
         bf:aa:7a:70:ba:ab:3a:6c:da:dd:41:0e:ad:50:4e:3a:84:43:
         d9:92:f9:62:e7:b7:87:69:cd:ff:61:fa:10:ec:3f:e9:9b:92:
         ec:71:72:a7
-----BEGIN CERTIFICATE-----
MIIDzTCCArWgAwIBAgIUB/GSkUbDEaihUrcE7wzpGSGXcr4wDQYJKoZIhvcNAQEL
BQAwdDELMAkGA1UEBhMCVVMxEzARBgNVBAgMClNvbWUtU3RhdGUxDzANBgNVBAoM
BlFXRVJUWTEWMBQGA1UEAwwNbXktZG9tYWluLmNvbTEnMCUGCSqGSIb3DQEJARYY
YWRtaW5AbWFpbC5teS1kb21haW4uY29tMB4XDTIwMDkyOTAwNTExNFoXDTIxMDky
OTAwNTExNFowUDELMAkGA1UEBhMCVVMxEzARBgNVBAgMClNvbWUtU3RhdGUxDzAN
BgNVBAoMBlFXRVJUWTEbMBkGA1UEAwwSbWFpbC5teS1kb21haW4uY29tMIIBIjAN
BgkqhkiG9w0BAQEFAAOCAQ8AMIIBCgKCAQEA2E6HgWcyNph0EF6Y7rU9VYgtqv7A
R3WfYnSItPLdDC8woxwbh+IbzWSLZj64c+DoSOU4k5ZCSbKv5vQlHt6NQTKCZR8j
I2d54YyYRVOT0ObCqqSxf5GFExGTk7QG7ZvRwNMD9HrGUGOu7UJdAst+iunrWZfs
fT0gq1C8NF1VwA1thX6MUfSP5oXFFpYDppfsIncUHALdhTAW4bMM/0Oi6vIaVRXV
zLLu0/LiPswqFX9cVwSsPe5T40kNXVAuHa19FEYMe/9bK+Go86cEK3wjAjL4xa+A
lBRfyY43xYNLDNr+DaPaj2/vdzukM6mIls8b9hvJtCgBySv8GgF+IydylQIDAQAB
o3sweTAJBgNVHRMEAjAAMCwGCWCGSAGG+EIBDQQfFh1PcGVuU1NMIEdlbmVyYXRl
ZCBDZXJ0aWZpY2F0ZTAdBgNVHQ4EFgQU2jP9QdQC9iuFuMgC+/qUEjUb1rEwHwYD
VR0jBBgwFoAUzS0rvHBHStM8HruUcPHCoY6lvc8wDQYJKoZIhvcNAQELBQADggEB
AJJ26ZfSaIa17l7oxZkR0YnqKcura+rizphLuBBlvOyCuQFdAbU9ih0TEnUpNsLe
N58A0u7Ket2PV0ftLKfe3STaxCU4K2gWI7HjNurrfngG2TpxcLtbrDt2BXeq7mLO
wjdeDUtKeze0HRAeO5/jlssu2Rwwpewt8oWHOJxQvP8osQnYR37CUqx4qF4sRDw3
pJboyMRk0qukkpQrS/fxTI0XlaoAl/zeVt34/QerGd6RaIO0bVJXvoYfaPLr7iNU
EI6qFZdaBeefSM2FTLvhuJBv4/KDjgI9mr+qenC6qzps2t1BDq1QTjqEQ9mS+WLn
t4dpzf9h+hDsP+mbkuxxcqc=
-----END CERTIFICATE-----
